target datalayout = "e-m:e-p270:32:32-p271:32:32-p272:64:64-i64:64-i128:128-f80:128-n8:16:32:64-S128"
target triple = "x86_64-unknown-linux-gnu"

%struct.QEMUBH = type { ptr, ptr, ptr, ptr, %struct.anon, i32, ptr }
%struct.anon = type { ptr }
%struct.AioContext = type { %struct._GSource, %struct.QemuRecMutex, ptr, %struct.AioHandlerList, %struct.AioHandlerList, i32, %struct.QemuLockCnt, %struct.BHList, %struct.anon.1, i8, %struct.EventNotifier, %struct.anon.2, ptr, i32, i32, ptr, ptr, %struct.io_uring, %struct.AioHandlerSList, %struct.QEMUTimerListGroup, i32, i64, i64, i64, i64, i64, %struct.AioHandlerList, i8, i32, ptr }
%struct._GSource = type { ptr, ptr, ptr, i32, ptr, i32, i32, i32, ptr, ptr, ptr, ptr, ptr }
%struct.QemuRecMutex = type { %struct.QemuMutex }
%struct.QemuMutex = type { %union.pthread_mutex_t, i8 }
%union.pthread_mutex_t = type { %struct.__pthread_mutex_s }
%struct.__pthread_mutex_s = type { i32, i32, i32, i32, i32, i16, i16, %struct.__pthread_internal_list }
%struct.__pthread_internal_list = type { ptr, ptr }
%struct.QemuLockCnt = type { i32 }
%struct.BHList = type { ptr }
%struct.anon.1 = type { ptr, ptr }
%struct.EventNotifier = type { i32, i32, i8 }
%struct.anon.2 = type { ptr }
%struct.io_uring = type { %struct.io_uring_sq, %struct.io_uring_cq, i32, i32, i32, [3 x i32] }
%struct.io_uring_sq = type { ptr, ptr, ptr, ptr, ptr, ptr, ptr, ptr, i32, i32, i64, ptr, [4 x i32] }
%struct.io_uring_cq = type { ptr, ptr, ptr, ptr, ptr, ptr, ptr, i64, ptr, [4 x i32] }
%struct.AioHandlerSList = type { ptr }
%struct.QEMUTimerListGroup = type { [4 x ptr] }
%struct.AioHandlerList = type { ptr }
%struct.BHListSlice = type { %struct.BHList, %struct.anon.0 }
%struct.anon.0 = type { ptr }

@.str = private unnamed_addr constant [21 x i8] c"../qemu/util/async.c\00", align 1
@__func__.aio_compute_bh_timeout = private unnamed_addr constant [23 x i8] c"aio_compute_bh_timeout\00", align 1

; Function Attrs: nounwind sspstrong uwtable
define internal i64 @qemu_soonest_timeout(i64 noundef %timeout1, i64 noundef %timeout2) #0 {
entry:
  %timeout1.addr = alloca i64, align 8
  %timeout2.addr = alloca i64, align 8
  store i64 %timeout1, ptr %timeout1.addr, align 8
  store i64 %timeout2, ptr %timeout2.addr, align 8
  %0 = load i64, ptr %timeout1.addr, align 8
  %1 = load i64, ptr %timeout2.addr, align 8
  %cmp = icmp ult i64 %0, %1
  br i1 %cmp, label %cond.true, label %cond.false

cond.true:                                        ; preds = %entry
  %2 = load i64, ptr %timeout1.addr, align 8
  br label %cond.end

cond.false:                                       ; preds = %entry
  %3 = load i64, ptr %timeout2.addr, align 8
  br label %cond.end

cond.end:                                         ; preds = %cond.false, %cond.true
  %cond = phi i64 [ %2, %cond.true ], [ %3, %cond.false ]
  ret i64 %cond
}

; Function Attrs: nounwind sspstrong uwtable
define internal i64 @aio_compute_bh_timeout(ptr noundef %head, i32 noundef %timeout) #0 {
entry:
  %retval = alloca i64, align 8
  %head.addr = alloca ptr, align 8
  %timeout.addr = alloca i32, align 4
  %bh = alloca ptr, align 8
  %_val1 = alloca ptr, align 8
  %tmp = alloca ptr, align 8
  %_val2 = alloca ptr, align 8
  %tmp11 = alloca ptr, align 8
  store ptr %head, ptr %head.addr, align 8
  store i32 %timeout, ptr %timeout.addr, align 4
  br label %while.cond

while.cond:                                       ; preds = %do.end, %entry
  br i1 false, label %while.body, label %while.end

while.body:                                       ; preds = %while.cond
  br label %do.body

do.body:                                          ; preds = %while.body
  call void @g_assertion_message_expr(ptr noundef null, ptr noundef @.str, i32 noundef 255, ptr noundef @__func__.aio_compute_bh_timeout, ptr noundef null) #10
  unreachable

do.end:                                           ; No predecessors!
  br label %while.cond

while.end:                                        ; preds = %while.cond
  %0 = load ptr, ptr %head.addr, align 8
  %slh_first = getelementptr inbounds %struct.BHList, ptr %0, i32 0, i32 0
  %1 = load atomic i64, ptr %slh_first monotonic, align 8
  store i64 %1, ptr %_val1, align 8
  call void asm sideeffect "", "~{memory},~{dirflag},~{fpsr},~{flags}"() #11, !srcloc !10
  %2 = load ptr, ptr %_val1, align 8
  store ptr %2, ptr %tmp, align 8
  %3 = load ptr, ptr %tmp, align 8
  store ptr %3, ptr %bh, align 8
  br label %for.cond

for.cond:                                         ; preds = %while.end10, %while.end
  %4 = load ptr, ptr %bh, align 8
  %tobool = icmp ne ptr %4, null
  br i1 %tobool, label %for.body, label %for.end

for.body:                                         ; preds = %for.cond
  %5 = load ptr, ptr %bh, align 8
  %flags = getelementptr inbounds %struct.QEMUBH, ptr %5, i32 0, i32 5
  %6 = load i32, ptr %flags, align 8
  %and = and i32 %6, 6
  %cmp = icmp eq i32 %and, 2
  br i1 %cmp, label %if.then, label %if.end5

if.then:                                          ; preds = %for.body
  %7 = load ptr, ptr %bh, align 8
  %flags1 = getelementptr inbounds %struct.QEMUBH, ptr %7, i32 0, i32 5
  %8 = load i32, ptr %flags1, align 8
  %and2 = and i32 %8, 16
  %tobool3 = icmp ne i32 %and2, 0
  br i1 %tobool3, label %if.then4, label %if.else

if.then4:                                         ; preds = %if.then
  store i32 10000000, ptr %timeout.addr, align 4
  br label %if.end

if.else:                                          ; preds = %if.then
  store i64 0, ptr %retval, align 8
  br label %return

if.end:                                           ; preds = %if.then4
  br label %if.end5

if.end5:                                          ; preds = %if.end, %for.body
  br label %for.inc

for.inc:                                          ; preds = %if.end5
  br label %while.cond6

while.cond6:                                      ; preds = %do.end9, %for.inc
  br i1 false, label %while.body7, label %while.end10

while.body7:                                      ; preds = %while.cond6
  br label %do.body8

do.body8:                                         ; preds = %while.body7
  call void @g_assertion_message_expr(ptr noundef null, ptr noundef @.str, i32 noundef 255, ptr noundef @__func__.aio_compute_bh_timeout, ptr noundef null) #10
  unreachable

do.end9:                                          ; No predecessors!
  br label %while.cond6

while.end10:                                      ; preds = %while.cond6
  %9 = load ptr, ptr %bh, align 8
  %next = getelementptr inbounds %struct.QEMUBH, ptr %9, i32 0, i32 4
  %sle_next = getelementptr inbounds %struct.anon, ptr %next, i32 0, i32 0
  %10 = load atomic i64, ptr %sle_next monotonic, align 8
  store i64 %10, ptr %_val2, align 8
  call void asm sideeffect "", "~{memory},~{dirflag},~{fpsr},~{flags}"() #11, !srcloc !11
  %11 = load ptr, ptr %_val2, align 8
  store ptr %11, ptr %tmp11, align 8
  %12 = load ptr, ptr %tmp11, align 8
  store ptr %12, ptr %bh, align 8
  br label %for.cond, !llvm.loop !12

for.end:                                          ; preds = %for.cond
  %13 = load i32, ptr %timeout.addr, align 4
  %conv = sext i32 %13 to i64
  store i64 %conv, ptr %retval, align 8
  br label %return

return:                                           ; preds = %for.end, %if.else
  %14 = load i64, ptr %retval, align 8
  ret i64 %14
}

; Function Attrs: nounwind sspstrong uwtable
define dso_local i64 @aio_compute_timeout(ptr noundef %ctx) #0 {
entry:
  %retval = alloca i64, align 8
  %ctx.addr = alloca ptr, align 8
  %s = alloca ptr, align 8
  %deadline = alloca i64, align 8
  %timeout = alloca i32, align 4
  store ptr %ctx, ptr %ctx.addr, align 8
  store i32 -1, ptr %timeout, align 4
  %0 = load ptr, ptr %ctx.addr, align 8
  %bh_list = getelementptr inbounds %struct.AioContext, ptr %0, i32 0, i32 7
  %1 = load i32, ptr %timeout, align 4
  %call = call i64 @aio_compute_bh_timeout(ptr noundef %bh_list, i32 noundef %1)
  %conv = trunc i64 %call to i32
  store i32 %conv, ptr %timeout, align 4
  %2 = load i32, ptr %timeout, align 4
  %cmp = icmp eq i32 %2, 0
  br i1 %cmp, label %if.then, label %if.end

if.then:                                          ; preds = %entry
  store i64 0, ptr %retval, align 8
  br label %return

if.end:                                           ; preds = %entry
  %3 = load ptr, ptr %ctx.addr, align 8
  %bh_slice_list = getelementptr inbounds %struct.AioContext, ptr %3, i32 0, i32 8
  %sqh_first = getelementptr inbounds %struct.anon.1, ptr %bh_slice_list, i32 0, i32 0
  %4 = load ptr, ptr %sqh_first, align 8
  store ptr %4, ptr %s, align 8
  br label %for.cond

for.cond:                                         ; preds = %for.inc, %if.end
  %5 = load ptr, ptr %s, align 8
  %tobool = icmp ne ptr %5, null
  br i1 %tobool, label %for.body, label %for.end

for.body:                                         ; preds = %for.cond
  %6 = load ptr, ptr %s, align 8
  %bh_list2 = getelementptr inbounds %struct.BHListSlice, ptr %6, i32 0, i32 0
  %7 = load i32, ptr %timeout, align 4
  %call3 = call i64 @aio_compute_bh_timeout(ptr noundef %bh_list2, i32 noundef %7)
  %conv4 = trunc i64 %call3 to i32
  store i32 %conv4, ptr %timeout, align 4
  %8 = load i32, ptr %timeout, align 4
  %cmp5 = icmp eq i32 %8, 0
  br i1 %cmp5, label %if.then7, label %if.end8

if.then7:                                         ; preds = %for.body
  store i64 0, ptr %retval, align 8
  br label %return

if.end8:                                          ; preds = %for.body
  br label %for.inc

for.inc:                                          ; preds = %if.end8
  %9 = load ptr, ptr %s, align 8
  %next = getelementptr inbounds %struct.BHListSlice, ptr %9, i32 0, i32 1
  %sqe_next = getelementptr inbounds %struct.anon.0, ptr %next, i32 0, i32 0
  %10 = load ptr, ptr %sqe_next, align 8
  store ptr %10, ptr %s, align 8
  br label %for.cond, !llvm.loop !9

for.end:                                          ; preds = %for.cond
  %11 = load ptr, ptr %ctx.addr, align 8
  %tlg = getelementptr inbounds %struct.AioContext, ptr %11, i32 0, i32 19
  %call9 = call i64 @timerlistgroup_deadline_ns(ptr noundef %tlg)
  store i64 %call9, ptr %deadline, align 8
  %12 = load i64, ptr %deadline, align 8
  %cmp10 = icmp eq i64 %12, 0
  br i1 %cmp10, label %if.then12, label %if.else

if.then12:                                        ; preds = %for.end
  store i64 0, ptr %retval, align 8
  br label %return

if.else:                                          ; preds = %for.end
  %13 = load i32, ptr %timeout, align 4
  %conv13 = sext i32 %13 to i64
  %14 = load i64, ptr %deadline, align 8
  %call14 = call i64 @qemu_soonest_timeout(i64 noundef %conv13, i64 noundef %14)
  store i64 %call14, ptr %retval, align 8
  br label %return

return:                                           ; preds = %if.else, %if.then12, %if.then7, %if.then
  %15 = load i64, ptr %retval, align 8
  ret i64 %15
}