; Function Attrs: nounwind sspstrong uwtable
define dso_local noundef i64 @aio_compute_timeout(ptr noundef %ctx) local_unnamed_addr #0 {
entry:
  %bh_list = getelementptr inbounds nuw i8, ptr %ctx, i64 176
  %0 = load atomic i64, ptr %bh_list monotonic, align 8
  tail call void asm sideeffect "", "~{memory},~{dirflag},~{fpsr},~{flags}"() #13, !srcloc !11
  %tobool.not6.i = icmp eq i64 %0, 0
  br i1 %tobool.not6.i, label %if.end, label %for.body.i

for.body.i:                                       ; preds = %entry, %while.end10.i
  %bh.08.in.i = phi i64 [ %2, %while.end10.i ], [ %0, %entry ]
  %timeout.addr.07.i = phi i32 [ %timeout.addr.1.i, %while.end10.i ], [ -1, %entry ]
  %bh.08.i = inttoptr i64 %bh.08.in.i to ptr
  %flags.i = getelementptr inbounds nuw i8, ptr %bh.08.i, i64 40
  %1 = load i32, ptr %flags.i, align 8
  %and.i = and i32 %1, 6
  %cmp.i = icmp eq i32 %and.i, 2
  br i1 %cmp.i, label %if.then.i, label %while.end10.i

if.then.i:                                        ; preds = %for.body.i
  %and2.i = and i32 %1, 16
  %tobool3.not.i = icmp eq i32 %and2.i, 0
  br i1 %tobool3.not.i, label %return, label %while.end10.i

while.end10.i:                                    ; preds = %if.then.i, %for.body.i
  %timeout.addr.1.i = phi i32 [ %timeout.addr.07.i, %for.body.i ], [ 10000000, %if.then.i ]
  %next.i = getelementptr inbounds nuw i8, ptr %bh.08.i, i64 32
  %2 = load atomic i64, ptr %next.i monotonic, align 8
  tail call void asm sideeffect "", "~{memory},~{dirflag},~{fpsr},~{flags}"() #13, !srcloc !12
  %tobool.not.i = icmp eq i64 %2, 0
  br i1 %tobool.not.i, label %aio_compute_bh_timeout.exit, label %for.body.i, !llvm.loop !13

aio_compute_bh_timeout.exit:                      ; preds = %while.end10.i
  %conv.i = sext i32 %timeout.addr.1.i to i64
  br label %if.end

if.end:                                           ; preds = %aio_compute_bh_timeout.exit, %entry
  %conv.i36 = phi i64 [ %conv.i, %aio_compute_bh_timeout.exit ], [ -1, %entry ]
  %bh_slice_list = getelementptr inbounds nuw i8, ptr %ctx, i64 184
  %s.043 = load ptr, ptr %bh_slice_list, align 8
  %tobool.not44 = icmp eq ptr %s.043, null
  br i1 %tobool.not44, label %for.end, label %for.body.preheader

for.body.preheader:                               ; preds = %if.end
  %3 = trunc nsw i64 %conv.i36 to i32
  br label %for.body

for.cond:                                         ; preds = %aio_compute_bh_timeout.exit29
  %next = getelementptr inbounds nuw i8, ptr %s.046, i64 8
  %s.0 = load ptr, ptr %next, align 8
  %tobool.not = icmp eq ptr %s.0, null
  br i1 %tobool.not, label %for.end.loopexit, label %for.body, !llvm.loop !14

for.body:                                         ; preds = %for.body.preheader, %for.cond
  %s.046 = phi ptr [ %s.0, %for.cond ], [ %s.043, %for.body.preheader ]
  %timeout.0.in45 = phi i32 [ %timeout.addr.0.lcssa.i23, %for.cond ], [ %3, %for.body.preheader ]
  %4 = load atomic i64, ptr %s.046 monotonic, align 8
  tail call void asm sideeffect "", "~{memory},~{dirflag},~{fpsr},~{flags}"() #13, !srcloc !11
  %tobool.not6.i10 = icmp eq i64 %4, 0
  br i1 %tobool.not6.i10, label %aio_compute_bh_timeout.exit29, label %for.body.i11

for.body.i11:                                     ; preds = %for.body, %while.end10.i18
  %bh.08.in.i12 = phi i64 [ %6, %while.end10.i18 ], [ %4, %for.body ]
  %timeout.addr.07.i13 = phi i32 [ %timeout.addr.1.i19, %while.end10.i18 ], [ %timeout.0.in45, %for.body ]
  %bh.08.i14 = inttoptr i64 %bh.08.in.i12 to ptr
  %flags.i15 = getelementptr inbounds nuw i8, ptr %bh.08.i14, i64 40
  %5 = load i32, ptr %flags.i15, align 8
  %and.i16 = and i32 %5, 6
  %cmp.i17 = icmp eq i32 %and.i16, 2
  br i1 %cmp.i17, label %if.then.i26, label %while.end10.i18

if.then.i26:                                      ; preds = %for.body.i11
  %and2.i27 = and i32 %5, 16
  %tobool3.not.i28 = icmp eq i32 %and2.i27, 0
  br i1 %tobool3.not.i28, label %return, label %while.end10.i18

while.end10.i18:                                  ; preds = %if.then.i26, %for.body.i11
  %timeout.addr.1.i19 = phi i32 [ %timeout.addr.07.i13, %for.body.i11 ], [ 10000000, %if.then.i26 ]
  %next.i20 = getelementptr inbounds nuw i8, ptr %bh.08.i14, i64 32
  %6 = load atomic i64, ptr %next.i20 monotonic, align 8
  tail call void asm sideeffect "", "~{memory},~{dirflag},~{fpsr},~{flags}"() #13, !srcloc !12
  %tobool.not.i21 = icmp eq i64 %6, 0
  br i1 %tobool.not.i21, label %aio_compute_bh_timeout.exit29, label %for.body.i11, !llvm.loop !13

aio_compute_bh_timeout.exit29:                    ; preds = %while.end10.i18, %for.body
  %timeout.addr.0.lcssa.i23 = phi i32 [ %timeout.0.in45, %for.body ], [ %timeout.addr.1.i19, %while.end10.i18 ]
  %cmp5 = icmp eq i32 %timeout.addr.0.lcssa.i23, 0
  br i1 %cmp5, label %return, label %for.cond

for.end.loopexit:                                 ; preds = %for.cond
  %conv.i24 = sext i32 %timeout.addr.0.lcssa.i23 to i64
  br label %for.end

for.end:                                          ; preds = %for.end.loopexit, %if.end
  %timeout.0.in.lcssa = phi i64 [ %conv.i36, %if.end ], [ %conv.i24, %for.end.loopexit ]
  %tlg = getelementptr inbounds nuw i8, ptr %ctx, i64 480
  %call9 = tail call i64 @timerlistgroup_deadline_ns(ptr noundef nonnull %tlg) #13
  %cmp10 = icmp eq i64 %call9, 0
  br i1 %cmp10, label %return, label %if.else

if.else:                                          ; preds = %for.end
  %cond.i = tail call noundef i64 @llvm.umin.i64(i64 range(i64 -1, 10000001) %timeout.0.in.lcssa, i64 range(i64 1, 0) %call9)
  br label %return

return:                                           ; preds = %if.then.i, %aio_compute_bh_timeout.exit29, %if.then.i26, %for.end, %if.else
  %retval.0 = phi i64 [ %cond.i, %if.else ], [ 0, %for.end ], [ 0, %if.then.i26 ], [ 0, %aio_compute_bh_timeout.exit29 ], [ 0, %if.then.i ]
  ret i64 %retval.0
}